; ModuleID = '7/46.c'
source_filename = "7/46.c"
target datalayout = "e-m:e-p270:32:32-p271:32:32-p272:64:64-i64:64-f80:128-n8:16:32:64-S128"
target triple = "x86_64-pc-linux-gnu"

@.str = private unnamed_addr constant [7 x i8] c"%s%s%s\00", align 1
@.str.1 = private unnamed_addr constant [4 x i8] c"%s\0A\00", align 1

; Function Attrs: noinline nounwind uwtable
define dso_local i32 @main() #0 {
  %1 = alloca i32, align 4
  %2 = alloca [256 x i8], align 16
  %3 = alloca [256 x i8], align 16
  %4 = alloca [256 x i8], align 16
  %5 = alloca i32, align 4
  %6 = alloca i32, align 4
  %7 = alloca i32, align 4
  %8 = alloca i32, align 4
  %9 = alloca i32, align 4
  store i32 0, i32* %1, align 4
  %10 = getelementptr inbounds [256 x i8], [256 x i8]* %2, i64 0, i64 0
  %11 = getelementptr inbounds [256 x i8], [256 x i8]* %3, i64 0, i64 0
  %12 = getelementptr inbounds [256 x i8], [256 x i8]* %4, i64 0, i64 0
  %13 = call i32 (i8*, ...) @__isoc99_scanf(i8* getelementptr inbounds ([7 x i8], [7 x i8]* @.str, i64 0, i64 0), i8* %10, i8* %11, i8* %12)
  %14 = getelementptr inbounds [256 x i8], [256 x i8]* %2, i64 0, i64 0
  %15 = call i64 @strlen(i8* %14) #3
  %16 = trunc i64 %15 to i32
  store i32 %16, i32* %5, align 4
  %17 = getelementptr inbounds [256 x i8], [256 x i8]* %3, i64 0, i64 0
  %18 = call i64 @strlen(i8* %17) #3
  %19 = trunc i64 %18 to i32
  store i32 %19, i32* %6, align 4
  store i32 0, i32* %7, align 4
  br label %20

20:                                               ; preds = %71, %0
  %21 = load i32, i32* %7, align 4
  %22 = load i32, i32* %5, align 4
  %23 = icmp slt i32 %21, %22
  br i1 %23, label %24, label %74

24:                                               ; preds = %20
  store i32 1, i32* %9, align 4
  store i32 0, i32* %8, align 4
  br label %25

25:                                               ; preds = %45, %24
  %26 = load i32, i32* %8, align 4
  %27 = load i32, i32* %6, align 4
  %28 = icmp slt i32 %26, %27
  br i1 %28, label %29, label %48

29:                                               ; preds = %25
  %30 = load i32, i32* %7, align 4
  %31 = load i32, i32* %8, align 4
  %32 = add nsw i32 %30, %31
  %33 = sext i32 %32 to i64
  %34 = getelementptr inbounds [256 x i8], [256 x i8]* %2, i64 0, i64 %33
  %35 = load i8, i8* %34, align 1
  %36 = sext i8 %35 to i32
  %37 = load i32, i32* %8, align 4
  %38 = sext i32 %37 to i64
  %39 = getelementptr inbounds [256 x i8], [256 x i8]* %3, i64 0, i64 %38
  %40 = load i8, i8* %39, align 1
  %41 = sext i8 %40 to i32
  %42 = icmp ne i32 %36, %41
  br i1 %42, label %43, label %44

43:                                               ; preds = %29
  store i32 2, i32* %9, align 4
  br label %44

44:                                               ; preds = %43, %29
  br label %45

45:                                               ; preds = %44
  %46 = load i32, i32* %8, align 4
  %47 = add nsw i32 %46, 1
  store i32 %47, i32* %8, align 4
  br label %25

48:                                               ; preds = %25
  %49 = load i32, i32* %9, align 4
  %50 = icmp eq i32 %49, 1
  br i1 %50, label %51, label %70

51:                                               ; preds = %48
  store i32 0, i32* %8, align 4
  br label %52

52:                                               ; preds = %66, %51
  %53 = load i32, i32* %8, align 4
  %54 = load i32, i32* %6, align 4
  %55 = icmp slt i32 %53, %54
  br i1 %55, label %56, label %69

56:                                               ; preds = %52
  %57 = load i32, i32* %8, align 4
  %58 = sext i32 %57 to i64
  %59 = getelementptr inbounds [256 x i8], [256 x i8]* %4, i64 0, i64 %58
  %60 = load i8, i8* %59, align 1
  %61 = load i32, i32* %7, align 4
  %62 = load i32, i32* %8, align 4
  %63 = add nsw i32 %61, %62
  %64 = sext i32 %63 to i64
  %65 = getelementptr inbounds [256 x i8], [256 x i8]* %2, i64 0, i64 %64
  store i8 %60, i8* %65, align 1
  br label %66

66:                                               ; preds = %56
  %67 = load i32, i32* %8, align 4
  %68 = add nsw i32 %67, 1
  store i32 %68, i32* %8, align 4
  br label %52

69:                                               ; preds = %52
  br label %74

70:                                               ; preds = %48
  br label %71

71:                                               ; preds = %70
  %72 = load i32, i32* %7, align 4
  %73 = add nsw i32 %72, 1
  store i32 %73, i32* %7, align 4
  br label %20

74:                                               ; preds = %69, %20
  %75 = getelementptr inbounds [256 x i8], [256 x i8]* %2, i64 0, i64 0
  %76 = call i32 (i8*, ...) @printf(i8* getelementptr inbounds ([4 x i8], [4 x i8]* @.str.1, i64 0, i64 0), i8* %75)
  ret i32 0
}

declare dso_local i32 @__isoc99_scanf(i8*, ...) #1

; Function Attrs: nounwind readonly
declare dso_local i64 @strlen(i8*) #2

declare dso_local i32 @printf(i8*, ...) #1


!llvm.module.flags = !{!0}
!llvm.ident = !{!1}

!0 = !{i32 1, !"wchar_size", i32 4}
!1 = !{!"clang version 10.0.0-4ubuntu1 "}
